target datalayout = "e-m:e-p270:32:32-p271:32:32-p272:64:64-i64:64-i128:128-f80:128-n8:16:32:64-S128"
target triple = "x86_64-pc-linux-gnu"

%struct.FT_GlyphRec_ = type { ptr, ptr, i32, %struct.FT_Vector_ }
%struct.FT_Vector_ = type { i64, i64 }
%struct.FT_GlyphSlotRec_ = type { ptr, ptr, ptr, i32, %struct.FT_Generic_, %struct.FT_Glyph_Metrics_, i64, i64, %struct.FT_Vector_, i32, %struct.FT_Bitmap_, i32, i32, %struct.FT_Outline_, i32, ptr, ptr, i64, i64, i64, ptr, ptr }
%struct.FT_Generic_ = type { ptr, ptr }
%struct.FT_Glyph_Metrics_ = type { i64, i64, i64, i64, i64, i64, i64, i64 }
%struct.FT_Bitmap_ = type { i32, i32, i32, ptr, i16, i8, i8, ptr }
%struct.FT_Outline_ = type { i16, i16, ptr, ptr, ptr, i32 }
%struct.FT_LibraryRec_ = type { ptr, i32, i32, i32, i32, [32 x ptr], %struct.FT_ListRec_, ptr, ptr, [4 x ptr], [3 x %struct.FT_Vector_], i32 }
%struct.FT_ListRec_ = type { ptr, ptr }
%struct.FT_Glyph_Class_ = type { i64, i32, ptr, ptr, ptr, ptr, ptr, ptr }
%struct.FT_RendererRec_ = type { %struct.FT_ModuleRec_, ptr, i32, %struct.FT_Glyph_Class_, ptr, ptr, ptr }
%struct.FT_ModuleRec_ = type { ptr, ptr, ptr }

@ft_bitmap_glyph_class = hidden constant { i64, i32, [4 x i8], ptr, ptr, ptr, ptr, ptr, ptr } { i64 88, i32 1651078259, [4 x i8] zeroinitializer, ptr @ft_bitmap_glyph_init, ptr @ft_bitmap_glyph_done, ptr @ft_bitmap_glyph_copy, ptr null, ptr @ft_bitmap_glyph_bbox, ptr null }, align 8
@ft_svg_glyph_class = hidden constant { i64, i32, [4 x i8], ptr, ptr, ptr, ptr, ptr, ptr } { i64 176, i32 1398163232, [4 x i8] zeroinitializer, ptr @ft_svg_glyph_init, ptr @ft_svg_glyph_done, ptr @ft_svg_glyph_copy, ptr @ft_svg_glyph_transform, ptr null, ptr @ft_svg_glyph_prepare }, align 8

; Function Attrs: nounwind uwtable
define internal i32 @ft_new_glyph(ptr noundef %0, ptr noundef %1, ptr noundef %2) #0 {
  %4 = alloca ptr, align 8
  %5 = alloca ptr, align 8
  %6 = alloca ptr, align 8
  %7 = alloca ptr, align 8
  %8 = alloca i32, align 4
  %9 = alloca ptr, align 8
  store ptr %0, ptr %4, align 8, !tbaa !20
  store ptr %1, ptr %5, align 8, !tbaa !117
  store ptr %2, ptr %6, align 8, !tbaa !114
  call void @llvm.lifetime.start.p0(i64 8, ptr %7) #6
  %10 = load ptr, ptr %4, align 8, !tbaa !20
  %11 = getelementptr inbounds nuw %struct.FT_LibraryRec_, ptr %10, i32 0, i32 0
  %12 = load ptr, ptr %11, align 8, !tbaa !77
  store ptr %12, ptr %7, align 8, !tbaa !84
  call void @llvm.lifetime.start.p0(i64 4, ptr %8) #6
  call void @llvm.lifetime.start.p0(i64 8, ptr %9) #6
  store ptr null, ptr %9, align 8, !tbaa !3
  %13 = load ptr, ptr %6, align 8, !tbaa !114
  store ptr null, ptr %13, align 8, !tbaa !3
  %14 = load ptr, ptr %7, align 8, !tbaa !84
  %15 = load ptr, ptr %5, align 8, !tbaa !117
  %16 = getelementptr inbounds nuw %struct.FT_Glyph_Class_, ptr %15, i32 0, i32 0
  %17 = load i64, ptr %16, align 8, !tbaa !120
  %18 = call ptr @ft_mem_alloc(ptr noundef %14, i64 noundef %17, ptr noundef %8)
  store ptr %18, ptr %9, align 8, !tbaa !3
  %19 = load i32, ptr %8, align 4, !tbaa !12
  %20 = icmp ne i32 %19, 0
  br i1 %20, label %35, label %21

21:                                               ; preds = %3
  %22 = load ptr, ptr %4, align 8, !tbaa !20
  %23 = load ptr, ptr %9, align 8, !tbaa !3
  %24 = getelementptr inbounds nuw %struct.FT_GlyphRec_, ptr %23, i32 0, i32 0
  store ptr %22, ptr %24, align 8, !tbaa !14
  %25 = load ptr, ptr %5, align 8, !tbaa !117
  %26 = load ptr, ptr %9, align 8, !tbaa !3
  %27 = getelementptr inbounds nuw %struct.FT_GlyphRec_, ptr %26, i32 0, i32 1
  store ptr %25, ptr %27, align 8, !tbaa !116
  %28 = load ptr, ptr %5, align 8, !tbaa !117
  %29 = getelementptr inbounds nuw %struct.FT_Glyph_Class_, ptr %28, i32 0, i32 1
  %30 = load i32, ptr %29, align 8, !tbaa !121
  %31 = load ptr, ptr %9, align 8, !tbaa !3
  %32 = getelementptr inbounds nuw %struct.FT_GlyphRec_, ptr %31, i32 0, i32 2
  store i32 %30, ptr %32, align 8, !tbaa !107
  %33 = load ptr, ptr %9, align 8, !tbaa !3
  %34 = load ptr, ptr %6, align 8, !tbaa !114
  store ptr %33, ptr %34, align 8, !tbaa !3
  br label %35

35:                                               ; preds = %21, %3
  %36 = load i32, ptr %8, align 4, !tbaa !12
  call void @llvm.lifetime.end.p0(i64 8, ptr %9) #6
  call void @llvm.lifetime.end.p0(i64 4, ptr %8) #6
  call void @llvm.lifetime.end.p0(i64 8, ptr %7) #6
  ret i32 %36
}

; Function Attrs: nounwind uwtable
define void @FT_Done_Glyph(ptr noundef %0) #0 {
  %2 = alloca ptr, align 8
  %3 = alloca ptr, align 8
  %4 = alloca ptr, align 8
  store ptr %0, ptr %2, align 8, !tbaa !3
  %5 = load ptr, ptr %2, align 8, !tbaa !3
  %6 = icmp ne ptr %5, null
  br i1 %6, label %7, label %31

7:                                                ; preds = %1
  call void @llvm.lifetime.start.p0(i64 8, ptr %3) #6
  %8 = load ptr, ptr %2, align 8, !tbaa !3
  %9 = getelementptr inbounds nuw %struct.FT_GlyphRec_, ptr %8, i32 0, i32 0
  %10 = load ptr, ptr %9, align 8, !tbaa !14
  %11 = getelementptr inbounds nuw %struct.FT_LibraryRec_, ptr %10, i32 0, i32 0
  %12 = load ptr, ptr %11, align 8, !tbaa !77
  store ptr %12, ptr %3, align 8, !tbaa !84
  call void @llvm.lifetime.start.p0(i64 8, ptr %4) #6
  %13 = load ptr, ptr %2, align 8, !tbaa !3
  %14 = getelementptr inbounds nuw %struct.FT_GlyphRec_, ptr %13, i32 0, i32 1
  %15 = load ptr, ptr %14, align 8, !tbaa !116
  store ptr %15, ptr %4, align 8, !tbaa !117
  %16 = load ptr, ptr %4, align 8, !tbaa !117
  %17 = getelementptr inbounds nuw %struct.FT_Glyph_Class_, ptr %16, i32 0, i32 3
  %18 = load ptr, ptr %17, align 8, !tbaa !122
  %19 = icmp ne ptr %18, null
  br i1 %19, label %20, label %25

20:                                               ; preds = %7
  %21 = load ptr, ptr %4, align 8, !tbaa !117
  %22 = getelementptr inbounds nuw %struct.FT_Glyph_Class_, ptr %21, i32 0, i32 3
  %23 = load ptr, ptr %22, align 8, !tbaa !122
  %24 = load ptr, ptr %2, align 8, !tbaa !3
  call void %23(ptr noundef %24)
  br label %25

25:                                               ; preds = %20, %7
  br label %26

26:                                               ; preds = %25
  %27 = load ptr, ptr %3, align 8, !tbaa !84
  %28 = load ptr, ptr %2, align 8, !tbaa !3
  call void @ft_mem_free(ptr noundef %27, ptr noundef %28)
  store ptr null, ptr %2, align 8, !tbaa !3
  br label %29

29:                                               ; preds = %26
  br label %30

30:                                               ; preds = %29
  call void @llvm.lifetime.end.p0(i64 8, ptr %4) #6
  call void @llvm.lifetime.end.p0(i64 8, ptr %3) #6
  br label %31

31:                                               ; preds = %30, %1
  ret void
}

; Function Attrs: nounwind uwtable
define i32 @FT_New_Glyph(ptr noundef %0, i32 noundef %1, ptr noundef %2) #0 {
  %4 = alloca i32, align 4
  %5 = alloca ptr, align 8
  %6 = alloca i32, align 4
  %7 = alloca ptr, align 8
  %8 = alloca ptr, align 8
  %9 = alloca i32, align 4
  %10 = alloca ptr, align 8
  store ptr %0, ptr %5, align 8, !tbaa !20
  store i32 %1, ptr %6, align 4, !tbaa !12
  store ptr %2, ptr %7, align 8, !tbaa !114
  call void @llvm.lifetime.start.p0(i64 8, ptr %8) #6
  store ptr null, ptr %8, align 8, !tbaa !117
  %11 = load ptr, ptr %5, align 8, !tbaa !20
  %12 = icmp ne ptr %11, null
  br i1 %12, label %13, label %16

13:                                               ; preds = %3
  %14 = load ptr, ptr %7, align 8, !tbaa !114
  %15 = icmp ne ptr %14, null
  br i1 %15, label %17, label %16

16:                                               ; preds = %13, %3
  store i32 6, ptr %4, align 4
  store i32 1, ptr %9, align 4
  br label %50

17:                                               ; preds = %13
  %18 = load i32, ptr %6, align 4, !tbaa !12
  %19 = icmp eq i32 %18, 1651078259
  br i1 %19, label %20, label %21

20:                                               ; preds = %17
  store ptr @ft_bitmap_glyph_class, ptr %8, align 8, !tbaa !117
  br label %41

21:                                               ; preds = %17
  %22 = load i32, ptr %6, align 4, !tbaa !12
  %23 = icmp eq i32 %22, 1869968492
  br i1 %23, label %24, label %25

24:                                               ; preds = %21
  store ptr @ft_outline_glyph_class, ptr %8, align 8, !tbaa !117
  br label %40

25:                                               ; preds = %21
  %26 = load i32, ptr %6, align 4, !tbaa !12
  %27 = icmp eq i32 %26, 1398163232
  br i1 %27, label %28, label %29

28:                                               ; preds = %25
  store ptr @ft_svg_glyph_class, ptr %8, align 8, !tbaa !117
  br label %39

29:                                               ; preds = %25
  call void @llvm.lifetime.start.p0(i64 8, ptr %10) #6
  %30 = load ptr, ptr %5, align 8, !tbaa !20
  %31 = load i32, ptr %6, align 4, !tbaa !12
  %32 = call ptr @FT_Lookup_Renderer(ptr noundef %30, i32 noundef %31, ptr noundef null)
  store ptr %32, ptr %10, align 8, !tbaa !123
  %33 = load ptr, ptr %10, align 8, !tbaa !123
  %34 = icmp ne ptr %33, null
  br i1 %34, label %35, label %38

35:                                               ; preds = %29
  %36 = load ptr, ptr %10, align 8, !tbaa !123
  %37 = getelementptr inbounds nuw %struct.FT_RendererRec_, ptr %36, i32 0, i32 3
  store ptr %37, ptr %8, align 8, !tbaa !117
  br label %38

38:                                               ; preds = %35, %29
  call void @llvm.lifetime.end.p0(i64 8, ptr %10) #6
  br label %39

39:                                               ; preds = %38, %28
  br label %40

40:                                               ; preds = %39, %24
  br label %41

41:                                               ; preds = %40, %20
  %42 = load ptr, ptr %8, align 8, !tbaa !117
  %43 = icmp ne ptr %42, null
  br i1 %43, label %45, label %44

44:                                               ; preds = %41
  store i32 18, ptr %4, align 4
  store i32 1, ptr %9, align 4
  br label %50

45:                                               ; preds = %41
  %46 = load ptr, ptr %5, align 8, !tbaa !20
  %47 = load ptr, ptr %8, align 8, !tbaa !117
  %48 = load ptr, ptr %7, align 8, !tbaa !114
  %49 = call i32 @ft_new_glyph(ptr noundef %46, ptr noundef %47, ptr noundef %48)
  store i32 %49, ptr %4, align 4
  store i32 1, ptr %9, align 4
  br label %50

50:                                               ; preds = %45, %44, %16
  call void @llvm.lifetime.end.p0(i64 8, ptr %8) #6
  %51 = load i32, ptr %4, align 4
  ret i32 %51
}

; Function Attrs: nounwind uwtable
define i32 @FT_Get_Glyph(ptr noundef %0, ptr noundef %1) #0 {
  %3 = alloca i32, align 4
  %4 = alloca ptr, align 8
  %5 = alloca ptr, align 8
  %6 = alloca i32, align 4
  %7 = alloca ptr, align 8
  %8 = alloca i32, align 4
  store ptr %0, ptr %4, align 8, !tbaa !8
  store ptr %1, ptr %5, align 8, !tbaa !114
  call void @llvm.lifetime.start.p0(i64 4, ptr %6) #6
  call void @llvm.lifetime.start.p0(i64 8, ptr %7) #6
  %9 = load ptr, ptr %4, align 8, !tbaa !8
  %10 = icmp ne ptr %9, null
  br i1 %10, label %12, label %11

11:                                               ; preds = %2
  store i32 37, ptr %3, align 4
  store i32 1, ptr %8, align 4
  br label %96

12:                                               ; preds = %2
  %13 = load ptr, ptr %5, align 8, !tbaa !114
  %14 = icmp ne ptr %13, null
  br i1 %14, label %16, label %15

15:                                               ; preds = %12
  store i32 6, ptr %3, align 4
  store i32 1, ptr %8, align 4
  br label %96

16:                                               ; preds = %12
  %17 = load ptr, ptr %4, align 8, !tbaa !8
  %18 = getelementptr inbounds nuw %struct.FT_GlyphSlotRec_, ptr %17, i32 0, i32 0
  %19 = load ptr, ptr %18, align 8, !tbaa !124
  %20 = load ptr, ptr %4, align 8, !tbaa !8
  %21 = getelementptr inbounds nuw %struct.FT_GlyphSlotRec_, ptr %20, i32 0, i32 9
  %22 = load i32, ptr %21, align 8, !tbaa !21
  %23 = call i32 @FT_New_Glyph(ptr noundef %19, i32 noundef %22, ptr noundef %7)
  store i32 %23, ptr %6, align 4, !tbaa !12
  %24 = load i32, ptr %6, align 4, !tbaa !12
  %25 = icmp ne i32 %24, 0
  br i1 %25, label %26, label %27

26:                                               ; preds = %16
  br label %94

27:                                               ; preds = %16
  %28 = load ptr, ptr %4, align 8, !tbaa !8
  %29 = getelementptr inbounds nuw %struct.FT_GlyphSlotRec_, ptr %28, i32 0, i32 8
  %30 = getelementptr inbounds nuw %struct.FT_Vector_, ptr %29, i32 0, i32 0
  %31 = load i64, ptr %30, align 8, !tbaa !125
  %32 = icmp sge i64 %31, 2097152
  br i1 %32, label %39, label %33

33:                                               ; preds = %27
  %34 = load ptr, ptr %4, align 8, !tbaa !8
  %35 = getelementptr inbounds nuw %struct.FT_GlyphSlotRec_, ptr %34, i32 0, i32 8
  %36 = getelementptr inbounds nuw %struct.FT_Vector_, ptr %35, i32 0, i32 0
  %37 = load i64, ptr %36, align 8, !tbaa !125
  %38 = icmp sle i64 %37, -2097152
  br i1 %38, label %39, label %43

39:                                               ; preds = %33, %27
  br label %40

40:                                               ; preds = %39
  br label %41

41:                                               ; preds = %40
  br label %42

42:                                               ; preds = %41
  store i32 6, ptr %6, align 4, !tbaa !12
  br label %84

43:                                               ; preds = %33
  %44 = load ptr, ptr %4, align 8, !tbaa !8
  %45 = getelementptr inbounds nuw %struct.FT_GlyphSlotRec_, ptr %44, i32 0, i32 8
  %46 = getelementptr inbounds nuw %struct.FT_Vector_, ptr %45, i32 0, i32 1
  %47 = load i64, ptr %46, align 8, !tbaa !126
  %48 = icmp sge i64 %47, 2097152
  br i1 %48, label %55, label %49

49:                                               ; preds = %43
  %50 = load ptr, ptr %4, align 8, !tbaa !8
  %51 = getelementptr inbounds nuw %struct.FT_GlyphSlotRec_, ptr %50, i32 0, i32 8
  %52 = getelementptr inbounds nuw %struct.FT_Vector_, ptr %51, i32 0, i32 1
  %53 = load i64, ptr %52, align 8, !tbaa !126
  %54 = icmp sle i64 %53, -2097152
  br i1 %54, label %55, label %59

55:                                               ; preds = %49, %43
  br label %56

56:                                               ; preds = %55
  br label %57

57:                                               ; preds = %56
  br label %58

58:                                               ; preds = %57
  store i32 6, ptr %6, align 4, !tbaa !12
  br label %84

59:                                               ; preds = %49
  %60 = load ptr, ptr %4, align 8, !tbaa !8
  %61 = getelementptr inbounds nuw %struct.FT_GlyphSlotRec_, ptr %60, i32 0, i32 8
  %62 = getelementptr inbounds nuw %struct.FT_Vector_, ptr %61, i32 0, i32 0
  %63 = load i64, ptr %62, align 8, !tbaa !125
  %64 = mul nsw i64 %63, 1024
  %65 = load ptr, ptr %7, align 8, !tbaa !3
  %66 = getelementptr inbounds nuw %struct.FT_GlyphRec_, ptr %65, i32 0, i32 3
  %67 = getelementptr inbounds nuw %struct.FT_Vector_, ptr %66, i32 0, i32 0
  store i64 %64, ptr %67, align 8, !tbaa !127
  %68 = load ptr, ptr %4, align 8, !tbaa !8
  %69 = getelementptr inbounds nuw %struct.FT_GlyphSlotRec_, ptr %68, i32 0, i32 8
  %70 = getelementptr inbounds nuw %struct.FT_Vector_, ptr %69, i32 0, i32 1
  %71 = load i64, ptr %70, align 8, !tbaa !126
  %72 = mul nsw i64 %71, 1024
  %73 = load ptr, ptr %7, align 8, !tbaa !3
  %74 = getelementptr inbounds nuw %struct.FT_GlyphRec_, ptr %73, i32 0, i32 3
  %75 = getelementptr inbounds nuw %struct.FT_Vector_, ptr %74, i32 0, i32 1
  store i64 %72, ptr %75, align 8, !tbaa !128
  %76 = load ptr, ptr %7, align 8, !tbaa !3
  %77 = getelementptr inbounds nuw %struct.FT_GlyphRec_, ptr %76, i32 0, i32 1
  %78 = load ptr, ptr %77, align 8, !tbaa !116
  %79 = getelementptr inbounds nuw %struct.FT_Glyph_Class_, ptr %78, i32 0, i32 2
  %80 = load ptr, ptr %79, align 8, !tbaa !129
  %81 = load ptr, ptr %7, align 8, !tbaa !3
  %82 = load ptr, ptr %4, align 8, !tbaa !8
  %83 = call i32 %80(ptr noundef %81, ptr noundef %82)
  store i32 %83, ptr %6, align 4, !tbaa !12
  br label %84

84:                                               ; preds = %59, %58, %42
  %85 = load i32, ptr %6, align 4, !tbaa !12
  %86 = icmp ne i32 %85, 0
  br i1 %86, label %87, label %90

87:                                               ; preds = %84
  %88 = load ptr, ptr %7, align 8, !tbaa !3
  call void @FT_Done_Glyph(ptr noundef %88)
  %89 = load ptr, ptr %5, align 8, !tbaa !114
  store ptr null, ptr %89, align 8, !tbaa !3
  br label %93

90:                                               ; preds = %84
  %91 = load ptr, ptr %7, align 8, !tbaa !3
  %92 = load ptr, ptr %5, align 8, !tbaa !114
  store ptr %91, ptr %92, align 8, !tbaa !3
  br label %93

93:                                               ; preds = %90, %87
  br label %94

94:                                               ; preds = %93, %26
  %95 = load i32, ptr %6, align 4, !tbaa !12
  store i32 %95, ptr %3, align 4
  store i32 1, ptr %8, align 4
  br label %96

96:                                               ; preds = %94, %15, %11
  call void @llvm.lifetime.end.p0(i64 8, ptr %7) #6
  call void @llvm.lifetime.end.p0(i64 4, ptr %6) #6
  %97 = load i32, ptr %3, align 4
  ret i32 %97
}