; Function Attrs: nounwind uwtable
define i32 @FT_Get_Glyph(ptr noundef %0, ptr noundef writeonly %1) local_unnamed_addr #0 {
  %3 = alloca i32, align 4
  %.not = icmp eq ptr %0, null
  br i1 %.not, label %FT_New_Glyph.exit.thread, label %4

4:                                                ; preds = %2
  %.not22 = icmp eq ptr %1, null
  br i1 %.not22, label %FT_New_Glyph.exit.thread, label %5

5:                                                ; preds = %4
  %6 = load ptr, ptr %0, align 8, !tbaa !103
  %7 = getelementptr inbounds nuw i8, ptr %0, i64 144
  %8 = load i32, ptr %7, align 8, !tbaa !13
  %.not41 = icmp eq ptr %6, null
  br i1 %.not41, label %FT_New_Glyph.exit.thread, label %9

9:                                                ; preds = %5
  switch i32 %8, label %12 [
    i32 1651078259, label %15
    i32 1869968492, label %10
    i32 1398163232, label %11
  ]

10:                                               ; preds = %9
  br label %15

11:                                               ; preds = %9
  br label %15

12:                                               ; preds = %9
  %13 = tail call ptr @FT_Lookup_Renderer(ptr noundef nonnull %6, i32 noundef %8, ptr noundef null) #6
  %.not.i = icmp eq ptr %13, null
  %14 = getelementptr inbounds nuw i8, ptr %13, i64 40
  br i1 %.not.i, label %FT_New_Glyph.exit.thread, label %15

15:                                               ; preds = %12, %11, %10, %9
  %16 = phi ptr [ @ft_bitmap_glyph_class, %9 ], [ %14, %12 ], [ @ft_svg_glyph_class, %11 ], [ @ft_outline_glyph_class, %10 ]
  %17 = load ptr, ptr %6, align 8, !tbaa !61
  call void @llvm.lifetime.start.p0(i64 4, ptr nonnull %3) #6
  %18 = load i64, ptr %16, align 8, !tbaa !98
  %19 = call ptr @ft_mem_alloc(ptr noundef %17, i64 noundef %18, ptr noundef nonnull %3) #6
  %20 = load i32, ptr %3, align 4, !tbaa !38
  %.not.i.i = icmp eq i32 %20, 0
  br i1 %.not.i.i, label %21, label %FT_New_Glyph.exit

FT_New_Glyph.exit:                                ; preds = %15
  call void @llvm.lifetime.end.p0(i64 4, ptr nonnull %3) #6
  br label %FT_New_Glyph.exit.thread

21:                                               ; preds = %15
  store ptr %6, ptr %19, align 8, !tbaa !3
  %22 = getelementptr inbounds nuw i8, ptr %19, i64 8
  store ptr %16, ptr %22, align 8, !tbaa !95
  %23 = getelementptr inbounds nuw i8, ptr %16, i64 8
  %24 = load i32, ptr %23, align 8, !tbaa !100
  %25 = getelementptr inbounds nuw i8, ptr %19, i64 16
  store i32 %24, ptr %25, align 8, !tbaa !88
  call void @llvm.lifetime.end.p0(i64 4, ptr nonnull %3) #6
  %26 = getelementptr inbounds nuw i8, ptr %0, i64 128
  %27 = load i64, ptr %26, align 8, !tbaa !104
  %28 = add i64 %27, -2097152
  %or.cond = icmp ult i64 %28, -4194303
  br i1 %or.cond, label %.thread, label %29

29:                                               ; preds = %21
  %30 = getelementptr inbounds nuw i8, ptr %0, i64 136
  %31 = load i64, ptr %30, align 8, !tbaa !105
  %32 = add i64 %31, -2097152
  %or.cond25 = icmp ult i64 %32, -4194303
  br i1 %or.cond25, label %.thread, label %33

33:                                               ; preds = %29
  %34 = shl nsw i64 %27, 10
  %35 = getelementptr inbounds nuw i8, ptr %19, i64 24
  store i64 %34, ptr %35, align 8, !tbaa !106
  %36 = shl nsw i64 %31, 10
  %37 = getelementptr inbounds nuw i8, ptr %19, i64 32
  store i64 %36, ptr %37, align 8, !tbaa !107
  %38 = getelementptr inbounds nuw i8, ptr %16, i64 16
  %39 = load ptr, ptr %38, align 8, !tbaa !108
  %40 = call i32 %39(ptr noundef nonnull %19, ptr noundef nonnull %0) #6
  %.not24 = icmp eq i32 %40, 0
  br i1 %.not24, label %47, label %..thread_crit_edge

..thread_crit_edge:                               ; preds = %33
  %.pre = load ptr, ptr %19, align 8, !tbaa !3
  %.pre42 = load ptr, ptr %22, align 8, !tbaa !95
  br label %.thread

.thread:                                          ; preds = %..thread_crit_edge, %29, %21
  %41 = phi ptr [ %.pre42, %..thread_crit_edge ], [ %16, %21 ], [ %16, %29 ]
  %42 = phi ptr [ %.pre, %..thread_crit_edge ], [ %6, %21 ], [ %6, %29 ]
  %.140 = phi i32 [ %40, %..thread_crit_edge ], [ 6, %21 ], [ 6, %29 ]
  %43 = load ptr, ptr %42, align 8, !tbaa !61
  %44 = getelementptr inbounds nuw i8, ptr %41, i64 24
  %45 = load ptr, ptr %44, align 8, !tbaa !102
  %.not9.i = icmp eq ptr %45, null
  br i1 %.not9.i, label %FT_Done_Glyph.exit, label %46

46:                                               ; preds = %.thread
  call void %45(ptr noundef nonnull %19) #6
  br label %FT_Done_Glyph.exit

FT_Done_Glyph.exit:                               ; preds = %.thread, %46
  call void @ft_mem_free(ptr noundef %43, ptr noundef nonnull %19) #6
  store ptr null, ptr %1, align 8, !tbaa !96
  br label %FT_New_Glyph.exit.thread

47:                                               ; preds = %33
  store ptr %19, ptr %1, align 8, !tbaa !96
  br label %FT_New_Glyph.exit.thread

FT_New_Glyph.exit.thread:                         ; preds = %12, %5, %FT_New_Glyph.exit, %47, %FT_Done_Glyph.exit, %4, %2
  %.016 = phi i32 [ 37, %2 ], [ 6, %4 ], [ %20, %FT_New_Glyph.exit ], [ %.140, %FT_Done_Glyph.exit ], [ 0, %47 ], [ 18, %12 ], [ 6, %5 ]
  ret i32 %.016
}